; ModuleID = '57/1641.c'
source_filename = "57/1641.c"
target datalayout = "e-m:e-p270:32:32-p271:32:32-p272:64:64-i64:64-f80:128-n8:16:32:64-S128"
target triple = "x86_64-pc-linux-gnu"

@.str = private unnamed_addr constant [3 x i8] c"%d\00", align 1
@.str.1 = private unnamed_addr constant [3 x i8] c"%s\00", align 1
@.str.2 = private unnamed_addr constant [4 x i8] c"%s\0A\00", align 1

; Function Attrs: noinline nounwind uwtable
define dso_local i32 @main(i32 %0, i8** %1) #0 {
  %3 = alloca i32, align 4
  %4 = alloca i32, align 4
  %5 = alloca i8**, align 8
  %6 = alloca i32, align 4
  %7 = alloca i32, align 4
  %8 = alloca [32 x i8], align 16
  %9 = alloca i8*, align 8
  %10 = alloca i32, align 4
  store i32 0, i32* %3, align 4
  store i32 %0, i32* %4, align 4
  store i8** %1, i8*** %5, align 8
  %11 = call i32 (i8*, ...) @__isoc99_scanf(i8* getelementptr inbounds ([3 x i8], [3 x i8]* @.str, i64 0, i64 0), i32* %6)
  store i32 0, i32* %10, align 4
  br label %12

12:                                               ; preds = %44, %2
  %13 = load i32, i32* %10, align 4
  %14 = load i32, i32* %6, align 4
  %15 = icmp slt i32 %13, %14
  br i1 %15, label %16, label %47

16:                                               ; preds = %12
  %17 = getelementptr inbounds [32 x i8], [32 x i8]* %8, i64 0, i64 0
  %18 = call i32 (i8*, ...) @__isoc99_scanf(i8* getelementptr inbounds ([3 x i8], [3 x i8]* @.str.1, i64 0, i64 0), i8* %17)
  %19 = getelementptr inbounds [32 x i8], [32 x i8]* %8, i64 0, i64 0
  store i8* %19, i8** %9, align 8
  br label %20

20:                                               ; preds = %25, %16
  %21 = load i8*, i8** %9, align 8
  %22 = load i8, i8* %21, align 1
  %23 = icmp ne i8 %22, 0
  br i1 %23, label %24, label %28

24:                                               ; preds = %20
  br label %25

25:                                               ; preds = %24
  %26 = load i8*, i8** %9, align 8
  %27 = getelementptr inbounds i8, i8* %26, i32 1
  store i8* %27, i8** %9, align 8
  br label %20

28:                                               ; preds = %20
  %29 = load i8*, i8** %9, align 8
  %30 = getelementptr inbounds i8, i8* %29, i64 -1
  %31 = load i8, i8* %30, align 1
  %32 = sext i8 %31 to i32
  switch i32 %32, label %36 [
    i32 114, label %33
    i32 121, label %34
    i32 103, label %35
  ]

33:                                               ; preds = %28
  store i32 2, i32* %7, align 4
  br label %36

34:                                               ; preds = %28
  store i32 2, i32* %7, align 4
  br label %36

35:                                               ; preds = %28
  store i32 3, i32* %7, align 4
  br label %36

36:                                               ; preds = %28, %35, %34, %33
  %37 = load i8*, i8** %9, align 8
  %38 = load i32, i32* %7, align 4
  %39 = sext i32 %38 to i64
  %40 = sub i64 0, %39
  %41 = getelementptr inbounds i8, i8* %37, i64 %40
  store i8 0, i8* %41, align 1
  %42 = getelementptr inbounds [32 x i8], [32 x i8]* %8, i64 0, i64 0
  %43 = call i32 (i8*, ...) @printf(i8* getelementptr inbounds ([4 x i8], [4 x i8]* @.str.2, i64 0, i64 0), i8* %42)
  br label %44

44:                                               ; preds = %36
  %45 = load i32, i32* %10, align 4
  %46 = add nsw i32 %45, 1
  store i32 %46, i32* %10, align 4
  br label %12

47:                                               ; preds = %12
  ret i32 0
}

declare dso_local i32 @__isoc99_scanf(i8*, ...) #1

declare dso_local i32 @printf(i8*, ...) #1


!llvm.module.flags = !{!0}
!llvm.ident = !{!1}

!0 = !{i32 1, !"wchar_size", i32 4}
!1 = !{!"clang version 10.0.0-4ubuntu1 "}
