; ModuleID = 'source-C-CXX/56/1641.c'
source_filename = "source-C-CXX/56/1641.c"
target datalayout = "e-m:e-p270:32:32-p271:32:32-p272:64:64-i64:64-f80:128-n8:16:32:64-S128"
target triple = "x86_64-pc-linux-gnu"

@.str = private unnamed_addr constant [3 x i8] c"%d\00", align 1
@.str.1 = private unnamed_addr constant [3 x i8] c"%s\00", align 1

; Function Attrs: nofree nounwind sspstrong uwtable
define dso_local i32 @main(i32 %0, i8** nocapture readnone %1) local_unnamed_addr #0 {
  %3 = alloca i32, align 4
  %4 = alloca [32 x i8], align 16
  %5 = bitcast i32* %3 to i8*
  call void @llvm.lifetime.start.p0i8(i64 4, i8* nonnull %5) #4
  %6 = getelementptr inbounds [32 x i8], [32 x i8]* %4, i64 0, i64 0
  call void @llvm.lifetime.start.p0i8(i64 32, i8* nonnull %6) #4
  %7 = call i32 (i8*, ...) @__isoc99_scanf(i8* getelementptr inbounds ([3 x i8], [3 x i8]* @.str, i64 0, i64 0), i32* nonnull %3)
  %8 = load i32, i32* %3, align 4, !tbaa !5
  %9 = icmp sgt i32 %8, 0
  br i1 %9, label %11, label %10

10:                                               ; preds = %27, %2
  call void @llvm.lifetime.end.p0i8(i64 32, i8* nonnull %6) #4
  call void @llvm.lifetime.end.p0i8(i64 4, i8* nonnull %5) #4
  ret i32 0

11:                                               ; preds = %2, %27
  %12 = phi i32 [ %33, %27 ], [ 0, %2 ]
  %13 = phi i32 [ %28, %27 ], [ undef, %2 ]
  %14 = call i32 (i8*, ...) @__isoc99_scanf(i8* getelementptr inbounds ([3 x i8], [3 x i8]* @.str.1, i64 0, i64 0), i8* nonnull %6)
  br label %15

15:                                               ; preds = %15, %11
  %16 = phi i8* [ %6, %11 ], [ %19, %15 ]
  %17 = load i8, i8* %16, align 1, !tbaa !9
  %18 = icmp eq i8 %17, 0
  %19 = getelementptr inbounds i8, i8* %16, i64 1
  br i1 %18, label %20, label %15, !llvm.loop !10

20:                                               ; preds = %15
  %21 = getelementptr inbounds i8, i8* %16, i64 -1
  %22 = load i8, i8* %21, align 1, !tbaa !9
  %23 = sext i8 %22 to i32
  switch i32 %23, label %27 [
    i32 114, label %24
    i32 121, label %25
    i32 103, label %26
  ]

24:                                               ; preds = %20
  br label %27

25:                                               ; preds = %20
  br label %27

26:                                               ; preds = %20
  br label %27

27:                                               ; preds = %20, %26, %25, %24
  %28 = phi i32 [ %13, %20 ], [ 3, %26 ], [ 2, %25 ], [ 2, %24 ]
  %29 = sext i32 %28 to i64
  %30 = sub nsw i64 0, %29
  %31 = getelementptr inbounds i8, i8* %16, i64 %30
  store i8 0, i8* %31, align 1, !tbaa !9
  %32 = call i32 @puts(i8* nonnull %6)
  %33 = add nuw nsw i32 %12, 1
  %34 = load i32, i32* %3, align 4, !tbaa !5
  %35 = icmp slt i32 %33, %34
  br i1 %35, label %11, label %10, !llvm.loop !12
}

; Function Attrs: argmemonly mustprogress nofree nosync nounwind willreturn
declare void @llvm.lifetime.start.p0i8(i64 immarg, i8* nocapture) #1

; Function Attrs: nofree nounwind
declare noundef i32 @__isoc99_scanf(i8* nocapture noundef readonly, ...) local_unnamed_addr #2

; Function Attrs: argmemonly mustprogress nofree nosync nounwind willreturn
declare void @llvm.lifetime.end.p0i8(i64 immarg, i8* nocapture) #1

; Function Attrs: nofree nounwind
declare noundef i32 @puts(i8* nocapture noundef readonly) local_unnamed_addr #3


!llvm.module.flags = !{!0, !1, !2, !3}
!llvm.ident = !{!4}

!0 = !{i32 1, !"wchar_size", i32 4}
!1 = !{i32 7, !"PIC Level", i32 2}
!2 = !{i32 7, !"PIE Level", i32 2}
!3 = !{i32 7, !"uwtable", i32 1}
!4 = !{!"clang version 13.0.0"}
!5 = !{!6, !6, i64 0}
!6 = !{!"int", !7, i64 0}
!7 = !{!"omnipotent char", !8, i64 0}
!8 = !{!"Simple C/C++ TBAA"}
!9 = !{!7, !7, i64 0}
!10 = distinct !{!10, !11}
!11 = !{!"llvm.loop.mustprogress"}
!12 = distinct !{!12, !11}
